target datalayout = "e-m:e-p270:32:32-p271:32:32-p272:64:64-i64:64-i128:128-f80:128-n8:16:32:64-S128"
target triple = "x86_64-pc-linux-gnu"

%union.ImGL3WProcs = type { [59 x ptr] }
%struct.anon.0 = type { ptr, ptr, ptr, ptr, ptr, ptr, ptr, ptr, ptr, ptr, ptr, ptr, ptr, ptr, ptr, ptr, ptr, ptr, ptr, ptr, ptr, ptr, ptr, ptr, ptr, ptr, ptr, ptr, ptr, ptr, ptr, ptr, ptr, ptr, ptr, ptr, ptr, ptr, ptr, ptr, ptr, ptr, ptr, ptr, ptr, ptr, ptr, ptr, ptr, ptr, ptr, ptr, ptr, ptr, ptr, ptr, ptr, ptr, ptr }
%struct.ImGuiIO = type { i32, i32, %struct.ImVec2, float, float, ptr, ptr, ptr, ptr, float, i8, ptr, %struct.ImVec2, i8, i8, i8, i8, i8, i8, i8, i8, i8, i8, float, float, float, float, float, float, i8, i8, i8, i8, i8, i8, i8, i8, i8, i8, ptr, ptr, ptr, ptr, ptr, i8, i8, i8, i8, i8, i8, i8, float, i32, i32, i32, i32, %struct.ImVec2, ptr, %struct.ImVec2, [5 x i8], float, float, i32, i8, i8, i8, i8, i32, [154 x %struct.ImGuiKeyData], i8, %struct.ImVec2, [5 x %struct.ImVec2], [5 x double], [5 x i8], [5 x i8], [5 x i16], [5 x i16], [5 x i8], [5 x i8], [5 x i8], i8, i8, [5 x float], [5 x float], [5 x float], float, i8, i8, i8, i8, i16, %struct.ImVector }
%struct.ImGuiKeyData = type { i8, float, float, float }
%struct.ImVec2 = type { float, float }
%struct.ImVector = type { i32, i32, ptr }
%struct.ImGui_ImplOpenGL3_Data = type <{ i32, [32 x i8], i8, i8, i8, i8, i32, i32, i32, i32, i32, i32, i32, i32, i32, i32, i64, i64, i8, i8, i8, [5 x i8] }>

@imgl3wProcs = dso_local global %union.ImGL3WProcs zeroinitializer, align 8
@.str = private unnamed_addr constant [7 x i8] c"1.91.3\00", align 1
@stderr = external global ptr, align 8
@.str.1 = private unnamed_addr constant [37 x i8] c"Failed to initialize OpenGL loader!\0A\00", align 1
@.str.2 = private unnamed_addr constant [19 x i8] c"imgui_impl_opengl3\00", align 1
@.str.3 = private unnamed_addr constant [6 x i8] c"%d.%d\00", align 1
@.str.4 = private unnamed_addr constant [12 x i8] c"OpenGL ES 3\00", align 1
@.str.5 = private unnamed_addr constant [13 x i8] c"#version 130\00", align 1
@.str.6 = private unnamed_addr constant [2 x i8] c"\0A\00", align 1
@.str.7 = private unnamed_addr constant [20 x i8] c"GL_ARB_clip_control\00", align 1

; Function Attrs: inlinehint mustprogress nounwind uwtable
define linkonce_odr dso_local void @_ZdlPv12ImNewWrapperS_(ptr noundef %0, ptr noundef %1) #5 comdat {
  %3 = alloca ptr, align 8
  %4 = alloca ptr, align 8
  store ptr %0, ptr %3, align 8, !tbaa !8
  store ptr %1, ptr %4, align 8, !tbaa !8
  ret void
}

; Function Attrs: mustprogress nounwind uwtable
define linkonce_odr dso_local void @_ZN22ImGui_ImplOpenGL3_DataC2Ev(ptr noundef nonnull align 8 dereferenceable(99) %0) unnamed_addr #3 comdat align 2 {
  %2 = alloca ptr, align 8
  store ptr %0, ptr %2, align 8, !tbaa !24
  %3 = load ptr, ptr %2, align 8
  call void @llvm.memset.p0.i64(ptr align 1 %3, i8 0, i64 104, i1 false)
  ret void
}

; Function Attrs: inlinehint mustprogress nounwind uwtable
define linkonce_odr dso_local noundef ptr @_Znwm12ImNewWrapperPv(i64 noundef %0, ptr noundef %1) #5 comdat {
  %3 = alloca i64, align 8
  %4 = alloca ptr, align 8
  store i64 %0, ptr %3, align 8, !tbaa !12
  store ptr %1, ptr %4, align 8, !tbaa !8
  %5 = load ptr, ptr %4, align 8, !tbaa !8
  ret ptr %5
}

; Function Attrs: mustprogress uwtable
define dso_local noundef zeroext i1 @_Z22ImGui_ImplOpenGL3_InitPKc(ptr noundef %0) #0 personality ptr @__gxx_personality_v0 {
  %2 = alloca i1, align 1
  %3 = alloca ptr, align 8
  %4 = alloca ptr, align 8
  %5 = alloca i32, align 4
  %6 = alloca ptr, align 8
  %7 = alloca ptr, align 8
  %8 = alloca i32, align 4
  %9 = alloca ptr, align 8
  %10 = alloca i32, align 4
  %11 = alloca i32, align 4
  %12 = alloca i32, align 4
  %13 = alloca i32, align 4
  %14 = alloca i32, align 4
  %15 = alloca ptr, align 8
  store ptr %0, ptr %3, align 8, !tbaa !10
  call void @llvm.lifetime.start.p0(i64 8, ptr %4) #11
  %16 = call noundef nonnull align 8 dereferenceable(2944) ptr @_ZN5ImGui5GetIOEv()
  store ptr %16, ptr %4, align 8, !tbaa !20
  %17 = call noundef zeroext i1 @_ZN5ImGui30DebugCheckVersionAndDataLayoutEPKcmmmmmm(ptr noundef @.str, i64 noundef 2944, i64 noundef 1156, i64 noundef 8, i64 noundef 16, i64 noundef 20, i64 noundef 2)
  %18 = call i32 @imgl3wInit()
  %19 = icmp ne i32 %18, 0
  br i1 %19, label %20, label %23

20:                                               ; preds = %1
  %21 = load ptr, ptr @stderr, align 8, !tbaa !22
  %22 = call i32 (ptr, ptr, ...) @fprintf(ptr noundef %21, ptr noundef @.str.1) #11
  store i1 false, ptr %2, align 1
  store i32 1, ptr %5, align 4
  br label %152

23:                                               ; preds = %1
  call void @llvm.lifetime.start.p0(i64 8, ptr %6) #11
  %24 = call noundef ptr @_ZN5ImGui8MemAllocEm(i64 noundef 104)
  %25 = call noundef ptr @_Znwm12ImNewWrapperPv(i64 noundef 104, ptr noundef %24)
  invoke void @_ZN22ImGui_ImplOpenGL3_DataC2Ev(ptr noundef nonnull align 8 dereferenceable(99) %25)
          to label %26 unwind label %44

26:                                               ; preds = %23
  store ptr %25, ptr %6, align 8, !tbaa !24
  %27 = load ptr, ptr %6, align 8, !tbaa !24
  %28 = load ptr, ptr %4, align 8, !tbaa !20
  %29 = getelementptr inbounds nuw %struct.ImGuiIO, ptr %28, i32 0, i32 42
  store ptr %27, ptr %29, align 8, !tbaa !26
  %30 = load ptr, ptr %4, align 8, !tbaa !20
  %31 = getelementptr inbounds nuw %struct.ImGuiIO, ptr %30, i32 0, i32 40
  store ptr @.str.2, ptr %31, align 8, !tbaa !38
  call void @llvm.lifetime.start.p0(i64 8, ptr %9) #11
  %32 = load ptr, ptr getelementptr inbounds nuw (%struct.anon.0, ptr @imgl3wProcs, i32 0, i32 39), align 8, !tbaa !14
  %33 = call noundef ptr %32(i32 noundef 7938)
  store ptr %33, ptr %9, align 8, !tbaa !10
  call void @llvm.lifetime.start.p0(i64 4, ptr %10) #11
  store i32 0, ptr %10, align 4, !tbaa !4
  call void @llvm.lifetime.start.p0(i64 4, ptr %11) #11
  store i32 0, ptr %11, align 4, !tbaa !4
  %34 = load ptr, ptr getelementptr inbounds nuw (%struct.anon.0, ptr @imgl3wProcs, i32 0, i32 34), align 8, !tbaa !14
  call void %34(i32 noundef 33307, ptr noundef %10)
  %35 = load ptr, ptr getelementptr inbounds nuw (%struct.anon.0, ptr @imgl3wProcs, i32 0, i32 34), align 8, !tbaa !14
  call void %35(i32 noundef 33308, ptr noundef %11)
  %36 = load i32, ptr %10, align 4, !tbaa !4
  %37 = icmp eq i32 %36, 0
  br i1 %37, label %38, label %48

38:                                               ; preds = %26
  %39 = load i32, ptr %11, align 4, !tbaa !4
  %40 = icmp eq i32 %39, 0
  br i1 %40, label %41, label %48

41:                                               ; preds = %38
  %42 = load ptr, ptr %9, align 8, !tbaa !10
  %43 = call i32 (ptr, ptr, ...) @__isoc99_sscanf(ptr noundef %42, ptr noundef @.str.3, ptr noundef %10, ptr noundef %11) #11
  br label %48

44:                                               ; preds = %23
  %45 = landingpad { ptr, i32 }
          cleanup
  %46 = extractvalue { ptr, i32 } %45, 0
  store ptr %46, ptr %7, align 8
  %47 = extractvalue { ptr, i32 } %45, 1
  store i32 %47, ptr %8, align 4
  call void @_ZdlPv12ImNewWrapperS_(ptr noundef %25, ptr noundef %24) #11
  call void @llvm.lifetime.end.p0(i64 8, ptr %6) #11
  call void @llvm.lifetime.end.p0(i64 8, ptr %4) #11
  br label %154

48:                                               ; preds = %41, %38, %26
  %49 = load i32, ptr %10, align 4, !tbaa !4
  %50 = mul nsw i32 %49, 100
  %51 = load i32, ptr %11, align 4, !tbaa !4
  %52 = mul nsw i32 %51, 10
  %53 = add nsw i32 %50, %52
  %54 = load ptr, ptr %6, align 8, !tbaa !24
  %55 = getelementptr inbounds nuw %struct.ImGui_ImplOpenGL3_Data, ptr %54, i32 0, i32 0
  store i32 %53, ptr %55, align 8, !tbaa !39
  %56 = load ptr, ptr %6, align 8, !tbaa !24
  %57 = getelementptr inbounds nuw %struct.ImGui_ImplOpenGL3_Data, ptr %56, i32 0, i32 0
  %58 = load i32, ptr %57, align 8, !tbaa !39
  %59 = icmp uge i32 %58, 320
  br i1 %59, label %60, label %64

60:                                               ; preds = %48
  %61 = load ptr, ptr getelementptr inbounds nuw (%struct.anon.0, ptr @imgl3wProcs, i32 0, i32 34), align 8, !tbaa !14
  %62 = load ptr, ptr %6, align 8, !tbaa !24
  %63 = getelementptr inbounds nuw %struct.ImGui_ImplOpenGL3_Data, ptr %62, i32 0, i32 6
  call void %61(i32 noundef 37158, ptr noundef %63)
  br label %64

64:                                               ; preds = %60, %48
  %65 = load ptr, ptr %6, align 8, !tbaa !24
  %66 = getelementptr inbounds nuw %struct.ImGui_ImplOpenGL3_Data, ptr %65, i32 0, i32 6
  %67 = load i32, ptr %66, align 8, !tbaa !41
  %68 = and i32 %67, 2
  %69 = icmp ne i32 %68, 0
  %70 = load ptr, ptr %6, align 8, !tbaa !24
  %71 = getelementptr inbounds nuw %struct.ImGui_ImplOpenGL3_Data, ptr %70, i32 0, i32 4
  %72 = zext i1 %69 to i8
  store i8 %72, ptr %71, align 2, !tbaa !42
  %73 = load ptr, ptr %9, align 8, !tbaa !10
  %74 = call i32 @strncmp(ptr noundef %73, ptr noundef @.str.4, i64 noundef 11) #12
  %75 = icmp eq i32 %74, 0
  br i1 %75, label %76, label %79

76:                                               ; preds = %64
  %77 = load ptr, ptr %6, align 8, !tbaa !24
  %78 = getelementptr inbounds nuw %struct.ImGui_ImplOpenGL3_Data, ptr %77, i32 0, i32 3
  store i8 1, ptr %78, align 1, !tbaa !43
  br label %79

79:                                               ; preds = %76, %64
  %80 = load ptr, ptr %6, align 8, !tbaa !24
  %81 = getelementptr inbounds nuw %struct.ImGui_ImplOpenGL3_Data, ptr %80, i32 0, i32 20
  store i8 0, ptr %81, align 2, !tbaa !44
  %82 = load ptr, ptr %6, align 8, !tbaa !24
  %83 = getelementptr inbounds nuw %struct.ImGui_ImplOpenGL3_Data, ptr %82, i32 0, i32 0
  %84 = load i32, ptr %83, align 8, !tbaa !39
  %85 = icmp uge i32 %84, 320
  br i1 %85, label %86, label %91

86:                                               ; preds = %79
  %87 = load ptr, ptr %4, align 8, !tbaa !20
  %88 = getelementptr inbounds nuw %struct.ImGuiIO, ptr %87, i32 0, i32 1
  %89 = load i32, ptr %88, align 4, !tbaa !45
  %90 = or i32 %89, 8
  store i32 %90, ptr %88, align 4, !tbaa !45
  br label %91

91:                                               ; preds = %86, %79
  %92 = load ptr, ptr %3, align 8, !tbaa !10
  %93 = icmp eq ptr %92, null
  br i1 %93, label %94, label %95

94:                                               ; preds = %91
  store ptr @.str.5, ptr %3, align 8, !tbaa !10
  br label %95

95:                                               ; preds = %94, %91
  %96 = load ptr, ptr %6, align 8, !tbaa !24
  %97 = getelementptr inbounds nuw %struct.ImGui_ImplOpenGL3_Data, ptr %96, i32 0, i32 1
  %98 = getelementptr inbounds [32 x i8], ptr %97, i64 0, i64 0
  %99 = load ptr, ptr %3, align 8, !tbaa !10
  %100 = call ptr @strcpy(ptr noundef %98, ptr noundef %99) #11
  %101 = load ptr, ptr %6, align 8, !tbaa !24
  %102 = getelementptr inbounds nuw %struct.ImGui_ImplOpenGL3_Data, ptr %101, i32 0, i32 1
  %103 = getelementptr inbounds [32 x i8], ptr %102, i64 0, i64 0
  %104 = call ptr @strcat(ptr noundef %103, ptr noundef @.str.6) #11
  call void @llvm.lifetime.start.p0(i64 4, ptr %12) #11
  %105 = load ptr, ptr getelementptr inbounds nuw (%struct.anon.0, ptr @imgl3wProcs, i32 0, i32 34), align 8, !tbaa !14
  call void %105(i32 noundef 32873, ptr noundef %12)
  %106 = load ptr, ptr %6, align 8, !tbaa !24
  %107 = getelementptr inbounds nuw %struct.ImGui_ImplOpenGL3_Data, ptr %106, i32 0, i32 2
  %108 = load i8, ptr %107, align 4, !tbaa !46, !range !47, !noundef !48
  %109 = trunc i8 %108 to i1
  br i1 %109, label %116, label %110

110:                                              ; preds = %95
  %111 = load ptr, ptr %6, align 8, !tbaa !24
  %112 = getelementptr inbounds nuw %struct.ImGui_ImplOpenGL3_Data, ptr %111, i32 0, i32 3
  %113 = load i8, ptr %112, align 1, !tbaa !43, !range !47, !noundef !48
  %114 = trunc i8 %113 to i1
  %115 = xor i1 %114, true
  br label %116

116:                                              ; preds = %110, %95
  %117 = phi i1 [ false, %95 ], [ %115, %110 ]
  %118 = load ptr, ptr %6, align 8, !tbaa !24
  %119 = getelementptr inbounds nuw %struct.ImGui_ImplOpenGL3_Data, ptr %118, i32 0, i32 18
  %120 = zext i1 %117 to i8
  store i8 %120, ptr %119, align 8, !tbaa !49
  %121 = load ptr, ptr %6, align 8, !tbaa !24
  %122 = getelementptr inbounds nuw %struct.ImGui_ImplOpenGL3_Data, ptr %121, i32 0, i32 0
  %123 = load i32, ptr %122, align 8, !tbaa !39
  %124 = icmp uge i32 %123, 450
  %125 = load ptr, ptr %6, align 8, !tbaa !24
  %126 = getelementptr inbounds nuw %struct.ImGui_ImplOpenGL3_Data, ptr %125, i32 0, i32 19
  %127 = zext i1 %124 to i8
  store i8 %127, ptr %126, align 1, !tbaa !50
  call void @llvm.lifetime.start.p0(i64 4, ptr %13) #11
  store i32 0, ptr %13, align 4, !tbaa !4
  %128 = load ptr, ptr getelementptr inbounds nuw (%struct.anon.0, ptr @imgl3wProcs, i32 0, i32 34), align 8, !tbaa !14
  call void %128(i32 noundef 33309, ptr noundef %13)
  call void @llvm.lifetime.start.p0(i64 4, ptr %14) #11
  store i32 0, ptr %14, align 4, !tbaa !4
  br label %129

129:                                              ; preds = %148, %116
  %130 = load i32, ptr %14, align 4, !tbaa !4
  %131 = load i32, ptr %13, align 4, !tbaa !4
  %132 = icmp slt i32 %130, %131
  br i1 %132, label %134, label %133

133:                                              ; preds = %129
  store i32 2, ptr %5, align 4
  call void @llvm.lifetime.end.p0(i64 4, ptr %14) #11
  br label %151

134:                                              ; preds = %129
  call void @llvm.lifetime.start.p0(i64 8, ptr %15) #11
  %135 = load ptr, ptr getelementptr inbounds nuw (%struct.anon.0, ptr @imgl3wProcs, i32 0, i32 40), align 8, !tbaa !14
  %136 = load i32, ptr %14, align 4, !tbaa !4
  %137 = call noundef ptr %135(i32 noundef 7939, i32 noundef %136)
  store ptr %137, ptr %15, align 8, !tbaa !10
  %138 = load ptr, ptr %15, align 8, !tbaa !10
  %139 = icmp ne ptr %138, null
  br i1 %139, label %140, label %147

140:                                              ; preds = %134
  %141 = load ptr, ptr %15, align 8, !tbaa !10
  %142 = call i32 @strcmp(ptr noundef %141, ptr noundef @.str.7) #12
  %143 = icmp eq i32 %142, 0
  br i1 %143, label %144, label %147

144:                                              ; preds = %140
  %145 = load ptr, ptr %6, align 8, !tbaa !24
  %146 = getelementptr inbounds nuw %struct.ImGui_ImplOpenGL3_Data, ptr %145, i32 0, i32 19
  store i8 1, ptr %146, align 1, !tbaa !50
  br label %147

147:                                              ; preds = %144, %140, %134
  call void @llvm.lifetime.end.p0(i64 8, ptr %15) #11
  br label %148

148:                                              ; preds = %147
  %149 = load i32, ptr %14, align 4, !tbaa !4
  %150 = add nsw i32 %149, 1
  store i32 %150, ptr %14, align 4, !tbaa !4
  br label %129, !llvm.loop !51

151:                                              ; preds = %133
  store i1 true, ptr %2, align 1
  store i32 1, ptr %5, align 4
  call void @llvm.lifetime.end.p0(i64 4, ptr %13) #11
  call void @llvm.lifetime.end.p0(i64 4, ptr %12) #11
  call void @llvm.lifetime.end.p0(i64 4, ptr %11) #11
  call void @llvm.lifetime.end.p0(i64 4, ptr %10) #11
  call void @llvm.lifetime.end.p0(i64 8, ptr %9) #11
  call void @llvm.lifetime.end.p0(i64 8, ptr %6) #11
  br label %152

152:                                              ; preds = %151, %20
  call void @llvm.lifetime.end.p0(i64 8, ptr %4) #11
  %153 = load i1, ptr %2, align 1
  ret i1 %153

154:                                              ; preds = %44
  %155 = load ptr, ptr %7, align 8
  %156 = load i32, ptr %8, align 4
  %157 = insertvalue { ptr, i32 } poison, ptr %155, 0
  %158 = insertvalue { ptr, i32 } %157, i32 %156, 1
  resume { ptr, i32 } %158
}