; Function Attrs: mustprogress uwtable
define dso_local noundef zeroext i1 @_Z22ImGui_ImplOpenGL3_InitPKc(ptr noundef readonly captures(address_is_null) %0) local_unnamed_addr #0 personality ptr @__gxx_personality_v0 {
  %2 = alloca i32, align 4
  %3 = alloca i32, align 4
  %4 = alloca i32, align 4
  %5 = alloca i32, align 4
  %6 = tail call noundef nonnull align 8 dereferenceable(2944) ptr @_ZN5ImGui5GetIOEv()
  %7 = tail call noundef zeroext i1 @_ZN5ImGui30DebugCheckVersionAndDataLayoutEPKcmmmmmm(ptr noundef nonnull @.str, i64 noundef 2944, i64 noundef 1156, i64 noundef 8, i64 noundef 16, i64 noundef 20, i64 noundef 2)
  %8 = tail call i32 @imgl3wInit()
  %.not = icmp eq i32 %8, 0
  br i1 %.not, label %12, label %9

9:                                                ; preds = %1
  %10 = load ptr, ptr @stderr, align 8, !tbaa !17
  %11 = tail call i64 @fwrite(ptr nonnull @.str.1, i64 36, i64 1, ptr %10) #18
  br label %87

12:                                               ; preds = %1
  %13 = tail call noundef ptr @_ZN5ImGui8MemAllocEm(i64 noundef 104)
  tail call void @llvm.memset.p0.i64(ptr noundef nonnull align 8 dereferenceable(104) %13, i8 0, i64 104, i1 false)
  %14 = getelementptr inbounds nuw i8, ptr %6, i64 152
  store ptr %13, ptr %14, align 8, !tbaa !19
  %15 = getelementptr inbounds nuw i8, ptr %6, i64 136
  store ptr @.str.2, ptr %15, align 8, !tbaa !31
  %16 = load ptr, ptr getelementptr inbounds nuw (i8, ptr @imgl3wProcs, i64 312), align 8, !tbaa !10
  %17 = tail call noundef ptr %16(i32 noundef 7938)
  call void @llvm.lifetime.start.p0(i64 4, ptr nonnull %2) #17
  store i32 0, ptr %2, align 4, !tbaa !32
  call void @llvm.lifetime.start.p0(i64 4, ptr nonnull %3) #17
  store i32 0, ptr %3, align 4, !tbaa !32
  %18 = load ptr, ptr getelementptr inbounds nuw (i8, ptr @imgl3wProcs, i64 272), align 8, !tbaa !10
  call void %18(i32 noundef 33307, ptr noundef nonnull %2)
  %19 = load ptr, ptr getelementptr inbounds nuw (i8, ptr @imgl3wProcs, i64 272), align 8, !tbaa !10
  call void %19(i32 noundef 33308, ptr noundef nonnull %3)
  %20 = load i32, ptr %2, align 4, !tbaa !32
  %21 = icmp eq i32 %20, 0
  %22 = load i32, ptr %3, align 4
  %23 = icmp eq i32 %22, 0
  %or.cond = select i1 %21, i1 %23, i1 false
  br i1 %or.cond, label %24, label %26

24:                                               ; preds = %12
  %25 = call i32 (ptr, ptr, ...) @__isoc99_sscanf(ptr noundef %17, ptr noundef nonnull @.str.3, ptr noundef nonnull %2, ptr noundef nonnull %3) #17
  %.pre = load i32, ptr %2, align 4, !tbaa !32
  %.pre34 = load i32, ptr %3, align 4, !tbaa !32
  br label %26

26:                                               ; preds = %24, %12
  %27 = phi i32 [ %.pre34, %24 ], [ %22, %12 ]
  %28 = phi i32 [ %.pre, %24 ], [ %20, %12 ]
  %29 = mul nsw i32 %28, 100
  %30 = mul nsw i32 %27, 10
  %31 = add nsw i32 %30, %29
  store i32 %31, ptr %13, align 8, !tbaa !33
  %32 = icmp ugt i32 %31, 319
  br i1 %32, label %33, label %36

33:                                               ; preds = %26
  %34 = load ptr, ptr getelementptr inbounds nuw (i8, ptr @imgl3wProcs, i64 272), align 8, !tbaa !10
  %35 = getelementptr inbounds nuw i8, ptr %13, i64 40
  call void %34(i32 noundef 37158, ptr noundef nonnull %35)
  br label %36

36:                                               ; preds = %33, %26
  %37 = getelementptr inbounds nuw i8, ptr %13, i64 40
  %38 = load i32, ptr %37, align 8, !tbaa !36
  %39 = getelementptr inbounds nuw i8, ptr %13, i64 38
  %40 = trunc i32 %38 to i8
  %41 = lshr i8 %40, 1
  %42 = and i8 %41, 1
  store i8 %42, ptr %39, align 2, !tbaa !37
  %43 = call i32 @strncmp(ptr noundef nonnull dereferenceable(1) %17, ptr noundef nonnull dereferenceable(12) @.str.4, i64 noundef 11) #19
  %44 = icmp eq i32 %43, 0
  br i1 %44, label %45, label %47

45:                                               ; preds = %36
  %46 = getelementptr inbounds nuw i8, ptr %13, i64 37
  store i8 1, ptr %46, align 1, !tbaa !38
  br label %47

47:                                               ; preds = %45, %36
  %48 = getelementptr inbounds nuw i8, ptr %13, i64 98
  store i8 0, ptr %48, align 2, !tbaa !39
  %49 = load i32, ptr %13, align 8, !tbaa !33
  %50 = icmp ugt i32 %49, 319
  br i1 %50, label %51, label %55

51:                                               ; preds = %47
  %52 = getelementptr inbounds nuw i8, ptr %6, i64 4
  %53 = load i32, ptr %52, align 4, !tbaa !40
  %54 = or i32 %53, 8
  store i32 %54, ptr %52, align 4, !tbaa !40
  br label %55

55:                                               ; preds = %51, %47
  %56 = icmp eq ptr %0, null
  %spec.store.select = select i1 %56, ptr @.str.5, ptr %0
  %57 = getelementptr inbounds nuw i8, ptr %13, i64 4
  %58 = call ptr @strcpy(ptr noundef nonnull dereferenceable(1) %57, ptr noundef nonnull dereferenceable(1) %spec.store.select) #17
  %strlen = call i64 @strlen(ptr noundef nonnull dereferenceable(1) %57)
  %endptr = getelementptr inbounds i8, ptr %57, i64 %strlen
  store i16 10, ptr %endptr, align 1
  call void @llvm.lifetime.start.p0(i64 4, ptr nonnull %4) #17
  %59 = load ptr, ptr getelementptr inbounds nuw (i8, ptr @imgl3wProcs, i64 272), align 8, !tbaa !10
  call void %59(i32 noundef 32873, ptr noundef nonnull %4)
  %60 = getelementptr inbounds nuw i8, ptr %13, i64 36
  %61 = load i8, ptr %60, align 4, !tbaa !41, !range !42, !noundef !43
  %62 = trunc nuw i8 %61 to i1
  br i1 %62, label %67, label %63

63:                                               ; preds = %55
  %64 = getelementptr inbounds nuw i8, ptr %13, i64 37
  %65 = load i8, ptr %64, align 1, !tbaa !38, !range !42, !noundef !43
  %66 = xor i8 %65, 1
  br label %67

67:                                               ; preds = %63, %55
  %68 = phi i8 [ 0, %55 ], [ %66, %63 ]
  %69 = getelementptr inbounds nuw i8, ptr %13, i64 96
  store i8 %68, ptr %69, align 8, !tbaa !44
  %70 = load i32, ptr %13, align 8, !tbaa !33
  %71 = icmp ugt i32 %70, 449
  %72 = getelementptr inbounds nuw i8, ptr %13, i64 97
  %73 = zext i1 %71 to i8
  store i8 %73, ptr %72, align 1, !tbaa !45
  call void @llvm.lifetime.start.p0(i64 4, ptr nonnull %5) #17
  store i32 0, ptr %5, align 4, !tbaa !32
  %74 = load ptr, ptr getelementptr inbounds nuw (i8, ptr @imgl3wProcs, i64 272), align 8, !tbaa !10
  call void %74(i32 noundef 33309, ptr noundef nonnull %5)
  %75 = load i32, ptr %5, align 4, !tbaa !32
  %76 = icmp sgt i32 %75, 0
  br i1 %76, label %.lr.ph, label %._crit_edge

._crit_edge:                                      ; preds = %83, %67
  call void @llvm.lifetime.end.p0(i64 4, ptr nonnull %5) #17
  call void @llvm.lifetime.end.p0(i64 4, ptr nonnull %4) #17
  call void @llvm.lifetime.end.p0(i64 4, ptr nonnull %3) #17
  call void @llvm.lifetime.end.p0(i64 4, ptr nonnull %2) #17
  br label %87

.lr.ph:                                           ; preds = %67, %83
  %.03033 = phi i32 [ %84, %83 ], [ 0, %67 ]
  %77 = load ptr, ptr getelementptr inbounds nuw (i8, ptr @imgl3wProcs, i64 320), align 8, !tbaa !10
  %78 = call noundef ptr %77(i32 noundef 7939, i32 noundef %.03033)
  %.not32 = icmp eq ptr %78, null
  br i1 %.not32, label %83, label %79

79:                                               ; preds = %.lr.ph
  %80 = call i32 @strcmp(ptr noundef nonnull dereferenceable(1) %78, ptr noundef nonnull dereferenceable(20) @.str.7) #19
  %81 = icmp eq i32 %80, 0
  br i1 %81, label %82, label %83

82:                                               ; preds = %79
  store i8 1, ptr %72, align 1, !tbaa !45
  br label %83

83:                                               ; preds = %82, %79, %.lr.ph
  %84 = add nuw nsw i32 %.03033, 1
  %85 = load i32, ptr %5, align 4, !tbaa !32
  %86 = icmp slt i32 %84, %85
  br i1 %86, label %.lr.ph, label %._crit_edge, !llvm.loop !46

87:                                               ; preds = %._crit_edge, %9
  ret i1 %.not
}